---
triple:          'x86_64-apple-darwin'
binary-path:     '/Users/ernie/WorkSpace/NextLevel/Tree/BST'
relocations:
  - { offset: 0x3149, size: 0x8, addend: 0x0, symName: __ZNSt3__124__put_character_sequenceB8ue170006IcNS_11char_traitsIcEEEERNS_13basic_ostreamIT_T0_EES7_PKS4_m, symObjAddr: 0x1840, symBinAddr: 0x100001E30, symSize: 0x1F0 }
  - { offset: 0x4459, size: 0x8, addend: 0x0, symName: __ZNSt3__1lsB8ue170006INS_11char_traitsIcEEEERNS_13basic_ostreamIcT_EES6_PKc, symObjAddr: 0xF0, symBinAddr: 0x1000006E0, symSize: 0x40 }
  - { offset: 0x449F, size: 0x8, addend: 0x0, symName: __ZNSt3__1eqB8ue170006I8TreeNodeNS_14default_deleteIS1_EEEEbRKNS_10unique_ptrIT_T0_EEDn, symObjAddr: 0x130, symBinAddr: 0x100000720, symSize: 0x30 }
  - { offset: 0x44EA, size: 0x8, addend: 0x0, symName: __ZNSt3__14endlB8ue170006IcNS_11char_traitsIcEEEERNS_13basic_ostreamIT_T0_EES7_, symObjAddr: 0x180, symBinAddr: 0x100000770, symSize: 0x50 }
  - { offset: 0x452A, size: 0x8, addend: 0x0, symName: __ZNSt3__1lsB8ue170006IcNS_11char_traitsIcEENS_9allocatorIcEEEERNS_13basic_ostreamIT_T0_EES9_RKNS_12basic_stringIS6_S7_T1_EE, symObjAddr: 0x1D0, symBinAddr: 0x1000007C0, symSize: 0x50 }
  - { offset: 0x4582, size: 0x8, addend: 0x0, symName: __ZNSt3__1neB8ue170006I8TreeNodeNS_14default_deleteIS1_EEEEbRKNS_10unique_ptrIT_T0_EEDn, symObjAddr: 0x560, symBinAddr: 0x100000B50, symSize: 0x30 }
  - { offset: 0x45CD, size: 0x8, addend: 0x0, symName: __ZNSt3__1plB8ue170006IcNS_11char_traitsIcEENS_9allocatorIcEEEENS_12basic_stringIT_T0_T1_EEOS9_PKS6_, symObjAddr: 0x5F0, symBinAddr: 0x100000BE0, symSize: 0x50 }
  - { offset: 0x4625, size: 0x8, addend: 0x0, symName: __ZNSt3__1plB8ue170006IcNS_11char_traitsIcEENS_9allocatorIcEEEENS_12basic_stringIT_T0_T1_EEOS9_RKS9_, symObjAddr: 0x640, symBinAddr: 0x100000C30, symSize: 0x50 }
  - { offset: 0x467D, size: 0x8, addend: 0x0, symName: __ZNSt3__1plB8ue170006IcNS_11char_traitsIcEENS_9allocatorIcEEEENS_12basic_stringIT_T0_T1_EEPKS6_OS9_, symObjAddr: 0x690, symBinAddr: 0x100000C80, symSize: 0x50 }
  - { offset: 0x46D5, size: 0x8, addend: 0x0, symName: __ZNSt3__111make_uniqueB8ue170006I8TreeNodeJRKiEEENS_11__unique_ifIT_E15__unique_singleEDpOT0_, symObjAddr: 0x750, symBinAddr: 0x100000D40, symSize: 0x80 }
  - { offset: 0x4717, size: 0x8, addend: 0x0, symName: __ZNSt3__111make_uniqueB8ue170006I8TreeNodeJiEEENS_11__unique_ifIT_E15__unique_singleEDpOT0_, symObjAddr: 0x12E0, symBinAddr: 0x1000018D0, symSize: 0x80 }
  - { offset: 0x4759, size: 0x8, addend: 0x0, symName: __ZNSt3__116__pad_and_outputB8ue170006IcNS_11char_traitsIcEEEENS_19ostreambuf_iteratorIT_T0_EES6_PKS4_S8_S8_RNS_8ios_baseES4_, symObjAddr: 0x1A80, symBinAddr: 0x100002070, symSize: 0x220 }
  - { offset: 0x4829, size: 0x8, addend: 0x0, symName: __ZNSt3__112__to_addressB8ue170006IKcEEPT_S3_, symObjAddr: 0x1FA0, symBinAddr: 0x100002590, symSize: 0x10 }
  - { offset: 0x4891, size: 0x8, addend: 0x0, symName: __ZNSt3__19use_facetB8ue170006INS_5ctypeIcEEEERKT_RKNS_6localeE, symObjAddr: 0x2200, symBinAddr: 0x1000027F0, symSize: 0x30 }
  - { offset: 0x4D5E, size: 0x8, addend: 0x0, symName: __ZNSt3__118__constexpr_strlenB8ue170006EPKc, symObjAddr: 0x2290, symBinAddr: 0x100002880, symSize: 0x20 }
  - { offset: 0x5F4B, size: 0x8, addend: 0x0, symName: __ZNK6BSTree5PrintEv, symObjAddr: 0x0, symBinAddr: 0x1000005F0, symSize: 0xF0 }
  - { offset: 0x5F70, size: 0x8, addend: 0x0, symName: __ZNSt3__113basic_ostreamIcNS_11char_traitsIcEEElsB8ue170006EPFRS3_S4_E, symObjAddr: 0x160, symBinAddr: 0x100000750, symSize: 0x20 }
  - { offset: 0x5FA2, size: 0x8, addend: 0x0, symName: __ZNK6BSTree13PrintTreeNodeEPK8TreeNode, symObjAddr: 0x220, symBinAddr: 0x100000810, symSize: 0x320 }
  - { offset: 0x6001, size: 0x8, addend: 0x0, symName: __ZNKSt3__110unique_ptrI8TreeNodeNS_14default_deleteIS1_EEE3getB8ue170006Ev, symObjAddr: 0x540, symBinAddr: 0x100000B30, symSize: 0x20 }
  - { offset: 0x602A, size: 0x8, addend: 0x0, symName: __ZNSt3__112basic_stringIcNS_11char_traitsIcEENS_9allocatorIcEEEC1B8ue170006ILi0EEEPKc, symObjAddr: 0x590, symBinAddr: 0x100000B80, symSize: 0x30 }
  - { offset: 0x6067, size: 0x8, addend: 0x0, symName: __ZNKSt3__110unique_ptrI8TreeNodeNS_14default_deleteIS1_EEEcvbB8ue170006Ev, symObjAddr: 0x5C0, symBinAddr: 0x100000BB0, symSize: 0x30 }
  - { offset: 0x608B, size: 0x8, addend: 0x0, symName: __ZN6BSTree6InsertEi, symObjAddr: 0x6E0, symBinAddr: 0x100000CD0, symSize: 0x70 }
  - { offset: 0x60D2, size: 0x8, addend: 0x0, symName: __ZNSt3__110unique_ptrI8TreeNodeNS_14default_deleteIS1_EEEaSB8ue170006EOS4_, symObjAddr: 0x7D0, symBinAddr: 0x100000DC0, symSize: 0x50 }
  - { offset: 0x6104, size: 0x8, addend: 0x0, symName: __ZNSt3__110unique_ptrI8TreeNodeNS_14default_deleteIS1_EEED1B8ue170006Ev, symObjAddr: 0x820, symBinAddr: 0x100000E10, symSize: 0x20 }
  - { offset: 0x612C, size: 0x8, addend: 0x0, symName: __ZN6BSTree25InsertRecursiveForSubTreeEiRNSt3__110unique_ptrI8TreeNodeNS0_14default_deleteIS2_EEEE, symObjAddr: 0x840, symBinAddr: 0x100000E30, symSize: 0x170 }
  - { offset: 0x6195, size: 0x8, addend: 0x0, symName: __ZNKSt3__110unique_ptrI8TreeNodeNS_14default_deleteIS1_EEEptB8ue170006Ev, symObjAddr: 0x9B0, symBinAddr: 0x100000FA0, symSize: 0x20 }
  - { offset: 0x61B9, size: 0x8, addend: 0x0, symName: __ZNK6BSTree8ContainsEi, symObjAddr: 0x9D0, symBinAddr: 0x100000FC0, symSize: 0x60 }
  - { offset: 0x61EC, size: 0x8, addend: 0x0, symName: __ZNK6BSTree27ContainsRecursiveForSubTreeEiRKNSt3__110unique_ptrI8TreeNodeNS0_14default_deleteIS2_EEEE, symObjAddr: 0xA30, symBinAddr: 0x100001020, symSize: 0x110 }
  - { offset: 0x622D, size: 0x8, addend: 0x0, symName: __ZN6BSTree6RemoveEi, symObjAddr: 0xB40, symBinAddr: 0x100001130, symSize: 0x40 }
  - { offset: 0x6260, size: 0x8, addend: 0x0, symName: __ZN6BSTree25RemoveRecursiveForSubTreeEiRNSt3__110unique_ptrI8TreeNodeNS0_14default_deleteIS2_EEEE, symObjAddr: 0xB80, symBinAddr: 0x100001170, symSize: 0x240 }
  - { offset: 0x62BD, size: 0x8, addend: 0x0, symName: __ZNSt3__110unique_ptrI8TreeNodeNS_14default_deleteIS1_EEEaSB8ue170006EDn, symObjAddr: 0xDC0, symBinAddr: 0x1000013B0, symSize: 0x30 }
  - { offset: 0x62EC, size: 0x8, addend: 0x0, symName: __ZN6BSTree14FindMinSubTreeERNSt3__110unique_ptrI8TreeNodeNS0_14default_deleteIS2_EEEE, symObjAddr: 0xDF0, symBinAddr: 0x1000013E0, symSize: 0xD0 }
  - { offset: 0x633B, size: 0x8, addend: 0x0, symName: _main, symObjAddr: 0xEC0, symBinAddr: 0x1000014B0, symSize: 0x420 }
  - { offset: 0x63BB, size: 0x8, addend: 0x0, symName: __ZN6BSTreeC1Ev, symObjAddr: 0x1360, symBinAddr: 0x100001950, symSize: 0x20 }
  - { offset: 0x63E3, size: 0x8, addend: 0x0, symName: __ZNSt3__110unique_ptrI8TreeNodeNS_14default_deleteIS1_EEEC1B8ue170006EOS4_, symObjAddr: 0x1380, symBinAddr: 0x100001970, symSize: 0x30 }
  - { offset: 0x6419, size: 0x8, addend: 0x0, symName: __ZN6BSTreeC1ENSt3__110unique_ptrI8TreeNodeNS0_14default_deleteIS2_EEEE, symObjAddr: 0x13B0, symBinAddr: 0x1000019A0, symSize: 0x20 }
  - { offset: 0x6450, size: 0x8, addend: 0x0, symName: __ZN6BSTreeD1Ev, symObjAddr: 0x13D0, symBinAddr: 0x1000019C0, symSize: 0x20 }
  - { offset: 0x647A, size: 0x8, addend: 0x0, symName: __ZN6BSTreeC2Ev, symObjAddr: 0x13F0, symBinAddr: 0x1000019E0, symSize: 0x20 }
  - { offset: 0x64A2, size: 0x8, addend: 0x0, symName: __ZNSt3__110unique_ptrI8TreeNodeNS_14default_deleteIS1_EEEC1B8ue170006ILb1EvEEDn, symObjAddr: 0x1410, symBinAddr: 0x100001A00, symSize: 0x30 }
  - { offset: 0x64DF, size: 0x8, addend: 0x0, symName: __ZNSt3__110unique_ptrI8TreeNodeNS_14default_deleteIS1_EEEC2B8ue170006ILb1EvEEDn, symObjAddr: 0x1440, symBinAddr: 0x100001A30, symSize: 0x40 }
  - { offset: 0x6521, size: 0x8, addend: 0x0, symName: __ZNSt3__117__compressed_pairIP8TreeNodeNS_14default_deleteIS1_EEEC1B8ue170006INS_16__value_init_tagES7_EEOT_OT0_, symObjAddr: 0x1480, symBinAddr: 0x100001A70, symSize: 0x30 }
  - { offset: 0x6577, size: 0x8, addend: 0x0, symName: __ZNSt3__117__compressed_pairIP8TreeNodeNS_14default_deleteIS1_EEEC2B8ue170006INS_16__value_init_tagES7_EEOT_OT0_, symObjAddr: 0x14C0, symBinAddr: 0x100001AB0, symSize: 0x30 }
  - { offset: 0x65CD, size: 0x8, addend: 0x0, symName: __ZNSt3__122__compressed_pair_elemIP8TreeNodeLi0ELb0EEC2B8ue170006ENS_16__value_init_tagE, symObjAddr: 0x14F0, symBinAddr: 0x100001AE0, symSize: 0x20 }
  - { offset: 0x65FF, size: 0x8, addend: 0x0, symName: __ZNSt3__122__compressed_pair_elemINS_14default_deleteI8TreeNodeEELi1ELb1EEC2B8ue170006ENS_16__value_init_tagE, symObjAddr: 0x1510, symBinAddr: 0x100001B00, symSize: 0x10 }
  - { offset: 0x6631, size: 0x8, addend: 0x0, symName: __ZN6BSTreeC2ENSt3__110unique_ptrI8TreeNodeNS0_14default_deleteIS2_EEEE, symObjAddr: 0x1520, symBinAddr: 0x100001B10, symSize: 0x20 }
  - { offset: 0x6668, size: 0x8, addend: 0x0, symName: __ZN6BSTreeD2Ev, symObjAddr: 0x1540, symBinAddr: 0x100001B30, symSize: 0x20 }
  - { offset: 0x6692, size: 0x8, addend: 0x0, symName: __ZNSt3__110unique_ptrI8TreeNodeNS_14default_deleteIS1_EEED2B8ue170006Ev, symObjAddr: 0x1560, symBinAddr: 0x100001B50, symSize: 0x20 }
  - { offset: 0x66BA, size: 0x8, addend: 0x0, symName: __ZNSt3__110unique_ptrI8TreeNodeNS_14default_deleteIS1_EEE5resetB8ue170006EPS1_, symObjAddr: 0x1580, symBinAddr: 0x100001B70, symSize: 0x70 }
  - { offset: 0x66FC, size: 0x8, addend: 0x0, symName: __ZNSt3__117__compressed_pairIP8TreeNodeNS_14default_deleteIS1_EEE5firstB8ue170006Ev, symObjAddr: 0x15F0, symBinAddr: 0x100001BE0, symSize: 0x20 }
  - { offset: 0x6720, size: 0x8, addend: 0x0, symName: __ZNSt3__117__compressed_pairIP8TreeNodeNS_14default_deleteIS1_EEE6secondB8ue170006Ev, symObjAddr: 0x1610, symBinAddr: 0x100001C00, symSize: 0x20 }
  - { offset: 0x6744, size: 0x8, addend: 0x0, symName: __ZNKSt3__114default_deleteI8TreeNodeEclB8ue170006EPS1_, symObjAddr: 0x1630, symBinAddr: 0x100001C20, symSize: 0x40 }
  - { offset: 0x6776, size: 0x8, addend: 0x0, symName: __ZNSt3__122__compressed_pair_elemIP8TreeNodeLi0ELb0EE5__getB8ue170006Ev, symObjAddr: 0x1670, symBinAddr: 0x100001C60, symSize: 0x10 }
  - { offset: 0x679A, size: 0x8, addend: 0x0, symName: __ZNSt3__122__compressed_pair_elemINS_14default_deleteI8TreeNodeEELi1ELb1EE5__getB8ue170006Ev, symObjAddr: 0x1680, symBinAddr: 0x100001C70, symSize: 0x10 }
  - { offset: 0x67BE, size: 0x8, addend: 0x0, symName: __ZN8TreeNodeD1Ev, symObjAddr: 0x1690, symBinAddr: 0x100001C80, symSize: 0x20 }
  - { offset: 0x67E8, size: 0x8, addend: 0x0, symName: __ZN8TreeNodeD2Ev, symObjAddr: 0x16B0, symBinAddr: 0x100001CA0, symSize: 0x30 }
  - { offset: 0x6812, size: 0x8, addend: 0x0, symName: __ZNSt3__110unique_ptrI8TreeNodeNS_14default_deleteIS1_EEEC2B8ue170006EOS4_, symObjAddr: 0x16E0, symBinAddr: 0x100001CD0, symSize: 0x60 }
  - { offset: 0x6848, size: 0x8, addend: 0x0, symName: __ZNSt3__110unique_ptrI8TreeNodeNS_14default_deleteIS1_EEE7releaseB8ue170006Ev, symObjAddr: 0x1740, symBinAddr: 0x100001D30, symSize: 0x40 }
  - { offset: 0x687B, size: 0x8, addend: 0x0, symName: __ZNSt3__110unique_ptrI8TreeNodeNS_14default_deleteIS1_EEE11get_deleterB8ue170006Ev, symObjAddr: 0x1780, symBinAddr: 0x100001D70, symSize: 0x20 }
  - { offset: 0x68A9, size: 0x8, addend: 0x0, symName: __ZNSt3__117__compressed_pairIP8TreeNodeNS_14default_deleteIS1_EEEC1B8ue170006IS2_S4_EEOT_OT0_, symObjAddr: 0x17A0, symBinAddr: 0x100001D90, symSize: 0x30 }
  - { offset: 0x68FF, size: 0x8, addend: 0x0, symName: __ZNSt3__117__compressed_pairIP8TreeNodeNS_14default_deleteIS1_EEEC2B8ue170006IS2_S4_EEOT_OT0_, symObjAddr: 0x17D0, symBinAddr: 0x100001DC0, symSize: 0x40 }
  - { offset: 0x6955, size: 0x8, addend: 0x0, symName: __ZNSt3__122__compressed_pair_elemIP8TreeNodeLi0ELb0EEC2B8ue170006IS2_vEEOT_, symObjAddr: 0x1810, symBinAddr: 0x100001E00, symSize: 0x20 }
  - { offset: 0x6995, size: 0x8, addend: 0x0, symName: __ZNSt3__122__compressed_pair_elemINS_14default_deleteI8TreeNodeEELi1ELb1EEC2B8ue170006IS3_vEEOT_, symObjAddr: 0x1830, symBinAddr: 0x100001E20, symSize: 0x10 }
  - { offset: 0x69D5, size: 0x8, addend: 0x0, symName: __ZNSt3__111char_traitsIcE6lengthB8ue170006EPKc, symObjAddr: 0x1A30, symBinAddr: 0x100002020, symSize: 0x30 }
  - { offset: 0x6A15, size: 0x8, addend: 0x0, symName: __ZNKSt3__113basic_ostreamIcNS_11char_traitsIcEEE6sentrycvbB8ue170006Ev, symObjAddr: 0x1A60, symBinAddr: 0x100002050, symSize: 0x20 }
  - { offset: 0x6A39, size: 0x8, addend: 0x0, symName: __ZNSt3__119ostreambuf_iteratorIcNS_11char_traitsIcEEEC1B8ue170006ERNS_13basic_ostreamIcS2_EE, symObjAddr: 0x1CA0, symBinAddr: 0x100002290, symSize: 0x30 }
  - { offset: 0x6A6F, size: 0x8, addend: 0x0, symName: __ZNKSt3__18ios_base5flagsB8ue170006Ev, symObjAddr: 0x1CD0, symBinAddr: 0x1000022C0, symSize: 0x20 }
  - { offset: 0x6A95, size: 0x8, addend: 0x0, symName: __ZNKSt3__19basic_iosIcNS_11char_traitsIcEEE4fillB8ue170006Ev, symObjAddr: 0x1CF0, symBinAddr: 0x1000022E0, symSize: 0x70 }
  - { offset: 0x6ABB, size: 0x8, addend: 0x0, symName: __ZNKSt3__119ostreambuf_iteratorIcNS_11char_traitsIcEEE6failedB8ue170006Ev, symObjAddr: 0x1D60, symBinAddr: 0x100002350, symSize: 0x20 }
  - { offset: 0x6ADF, size: 0x8, addend: 0x0, symName: __ZNSt3__19basic_iosIcNS_11char_traitsIcEEE8setstateB8ue170006Ej, symObjAddr: 0x1D80, symBinAddr: 0x100002370, symSize: 0x30 }
  - { offset: 0x6B12, size: 0x8, addend: 0x0, symName: __ZNKSt3__18ios_base5widthB8ue170006Ev, symObjAddr: 0x1DB0, symBinAddr: 0x1000023A0, symSize: 0x20 }
  - { offset: 0x6B38, size: 0x8, addend: 0x0, symName: __ZNSt3__115basic_streambufIcNS_11char_traitsIcEEE5sputnB8ue170006EPKcl, symObjAddr: 0x1DD0, symBinAddr: 0x1000023C0, symSize: 0x30 }
  - { offset: 0x6B78, size: 0x8, addend: 0x0, symName: __ZNSt3__112basic_stringIcNS_11char_traitsIcEENS_9allocatorIcEEEC1B8ue170006Emc, symObjAddr: 0x1E00, symBinAddr: 0x1000023F0, symSize: 0x30 }
  - { offset: 0x6BBE, size: 0x8, addend: 0x0, symName: __ZNKSt3__112basic_stringIcNS_11char_traitsIcEENS_9allocatorIcEEE4dataB8ue170006Ev, symObjAddr: 0x1E30, symBinAddr: 0x100002420, symSize: 0x30 }
  - { offset: 0x6BE2, size: 0x8, addend: 0x0, symName: __ZNSt3__18ios_base5widthB8ue170006El, symObjAddr: 0x1E60, symBinAddr: 0x100002450, symSize: 0x30 }
  - { offset: 0x6C26, size: 0x8, addend: 0x0, symName: __ZNSt3__112basic_stringIcNS_11char_traitsIcEENS_9allocatorIcEEEC2B8ue170006Emc, symObjAddr: 0x1E90, symBinAddr: 0x100002480, symSize: 0x50 }
  - { offset: 0x6C71, size: 0x8, addend: 0x0, symName: __ZNSt3__117__compressed_pairINS_12basic_stringIcNS_11char_traitsIcEENS_9allocatorIcEEE5__repES5_EC1B8ue170006INS_18__default_init_tagESA_EEOT_OT0_, symObjAddr: 0x1EE0, symBinAddr: 0x1000024D0, symSize: 0x30 }
  - { offset: 0x6CC7, size: 0x8, addend: 0x0, symName: __ZNSt3__117__compressed_pairINS_12basic_stringIcNS_11char_traitsIcEENS_9allocatorIcEEE5__repES5_EC2B8ue170006INS_18__default_init_tagESA_EEOT_OT0_, symObjAddr: 0x1F10, symBinAddr: 0x100002500, symSize: 0x30 }
  - { offset: 0x6D1D, size: 0x8, addend: 0x0, symName: __ZNSt3__122__compressed_pair_elemINS_12basic_stringIcNS_11char_traitsIcEENS_9allocatorIcEEE5__repELi0ELb0EEC2B8ue170006ENS_18__default_init_tagE, symObjAddr: 0x1F40, symBinAddr: 0x100002530, symSize: 0x10 }
  - { offset: 0x6D4F, size: 0x8, addend: 0x0, symName: __ZNSt3__122__compressed_pair_elemINS_9allocatorIcEELi1ELb1EEC2B8ue170006ENS_18__default_init_tagE, symObjAddr: 0x1F50, symBinAddr: 0x100002540, symSize: 0x20 }
  - { offset: 0x6D81, size: 0x8, addend: 0x0, symName: __ZNSt3__19allocatorIcEC2B8ue170006Ev, symObjAddr: 0x1F70, symBinAddr: 0x100002560, symSize: 0x20 }
  - { offset: 0x6DA9, size: 0x8, addend: 0x0, symName: __ZNSt3__116__non_trivial_ifILb1ENS_9allocatorIcEEEC2B8ue170006Ev, symObjAddr: 0x1F90, symBinAddr: 0x100002580, symSize: 0x10 }
  - { offset: 0x6DD1, size: 0x8, addend: 0x0, symName: __ZNKSt3__112basic_stringIcNS_11char_traitsIcEENS_9allocatorIcEEE13__get_pointerB8ue170006Ev, symObjAddr: 0x1FB0, symBinAddr: 0x1000025A0, symSize: 0x50 }
  - { offset: 0x6DF5, size: 0x8, addend: 0x0, symName: __ZNKSt3__112basic_stringIcNS_11char_traitsIcEENS_9allocatorIcEEE9__is_longB8ue170006Ev, symObjAddr: 0x2000, symBinAddr: 0x1000025F0, symSize: 0x30 }
  - { offset: 0x6E19, size: 0x8, addend: 0x0, symName: __ZNKSt3__112basic_stringIcNS_11char_traitsIcEENS_9allocatorIcEEE18__get_long_pointerB8ue170006Ev, symObjAddr: 0x2030, symBinAddr: 0x100002620, symSize: 0x20 }
  - { offset: 0x6E3D, size: 0x8, addend: 0x0, symName: __ZNKSt3__112basic_stringIcNS_11char_traitsIcEENS_9allocatorIcEEE19__get_short_pointerB8ue170006Ev, symObjAddr: 0x2050, symBinAddr: 0x100002640, symSize: 0x30 }
  - { offset: 0x6E61, size: 0x8, addend: 0x0, symName: __ZNKSt3__117__compressed_pairINS_12basic_stringIcNS_11char_traitsIcEENS_9allocatorIcEEE5__repES5_E5firstB8ue170006Ev, symObjAddr: 0x2080, symBinAddr: 0x100002670, symSize: 0x20 }
  - { offset: 0x6E85, size: 0x8, addend: 0x0, symName: __ZNKSt3__122__compressed_pair_elemINS_12basic_stringIcNS_11char_traitsIcEENS_9allocatorIcEEE5__repELi0ELb0EE5__getB8ue170006Ev, symObjAddr: 0x20A0, symBinAddr: 0x100002690, symSize: 0x10 }
  - { offset: 0x6EA9, size: 0x8, addend: 0x0, symName: __ZNSt3__114pointer_traitsIPKcE10pointer_toB8ue170006ERS1_, symObjAddr: 0x20B0, symBinAddr: 0x1000026A0, symSize: 0x10 }
  - { offset: 0x6ECB, size: 0x8, addend: 0x0, symName: __ZNSt3__119ostreambuf_iteratorIcNS_11char_traitsIcEEEC2B8ue170006ERNS_13basic_ostreamIcS2_EE, symObjAddr: 0x20C0, symBinAddr: 0x1000026B0, symSize: 0x50 }
  - { offset: 0x6F01, size: 0x8, addend: 0x0, symName: __ZNKSt3__19basic_iosIcNS_11char_traitsIcEEE5rdbufB8ue170006Ev, symObjAddr: 0x2110, symBinAddr: 0x100002700, symSize: 0x20 }
  - { offset: 0x6F27, size: 0x8, addend: 0x0, symName: __ZNKSt3__18ios_base5rdbufB8ue170006Ev, symObjAddr: 0x2130, symBinAddr: 0x100002720, symSize: 0x20 }
  - { offset: 0x6F4B, size: 0x8, addend: 0x0, symName: __ZNSt3__111char_traitsIcE11eq_int_typeB8ue170006Eii, symObjAddr: 0x2150, symBinAddr: 0x100002740, symSize: 0x20 }
  - { offset: 0x6F7D, size: 0x8, addend: 0x0, symName: __ZNSt3__111char_traitsIcE3eofB8ue170006Ev, symObjAddr: 0x2170, symBinAddr: 0x100002760, symSize: 0x10 }
  - { offset: 0x6F90, size: 0x8, addend: 0x0, symName: __ZNKSt3__19basic_iosIcNS_11char_traitsIcEEE5widenB8ue170006Ec, symObjAddr: 0x2180, symBinAddr: 0x100002770, symSize: 0x80 }
  - { offset: 0x7007, size: 0x8, addend: 0x0, symName: __ZNKSt3__15ctypeIcE5widenB8ue170006Ec, symObjAddr: 0x2230, symBinAddr: 0x100002820, symSize: 0x30 }
  - { offset: 0x703A, size: 0x8, addend: 0x0, symName: __ZNSt3__18ios_base8setstateB8ue170006Ej, symObjAddr: 0x2260, symBinAddr: 0x100002850, symSize: 0x30 }
  - { offset: 0x706F, size: 0x8, addend: 0x0, symName: __ZNKSt3__117__compressed_pairIP8TreeNodeNS_14default_deleteIS1_EEE5firstB8ue170006Ev, symObjAddr: 0x22B0, symBinAddr: 0x1000028A0, symSize: 0x20 }
  - { offset: 0x7093, size: 0x8, addend: 0x0, symName: __ZNKSt3__122__compressed_pair_elemIP8TreeNodeLi0ELb0EE5__getB8ue170006Ev, symObjAddr: 0x22D0, symBinAddr: 0x1000028C0, symSize: 0x10 }
  - { offset: 0x70B7, size: 0x8, addend: 0x0, symName: __ZNKSt3__112basic_stringIcNS_11char_traitsIcEENS_9allocatorIcEEE4sizeB8ue170006Ev, symObjAddr: 0x22E0, symBinAddr: 0x1000028D0, symSize: 0x50 }
  - { offset: 0x70DB, size: 0x8, addend: 0x0, symName: __ZNKSt3__112basic_stringIcNS_11char_traitsIcEENS_9allocatorIcEEE15__get_long_sizeB8ue170006Ev, symObjAddr: 0x2330, symBinAddr: 0x100002920, symSize: 0x20 }
  - { offset: 0x70FF, size: 0x8, addend: 0x0, symName: __ZNKSt3__112basic_stringIcNS_11char_traitsIcEENS_9allocatorIcEEE16__get_short_sizeB8ue170006Ev, symObjAddr: 0x2350, symBinAddr: 0x100002940, symSize: 0x30 }
  - { offset: 0x7123, size: 0x8, addend: 0x0, symName: __ZNSt3__112basic_stringIcNS_11char_traitsIcEENS_9allocatorIcEEEC2B8ue170006ILi0EEEPKc, symObjAddr: 0x2380, symBinAddr: 0x100002970, symSize: 0x50 }
  - { offset: 0x7160, size: 0x8, addend: 0x0, symName: __ZNSt3__112basic_stringIcNS_11char_traitsIcEENS_9allocatorIcEEEC1B8ue170006EOS5_, symObjAddr: 0x23D0, symBinAddr: 0x1000029C0, symSize: 0x30 }
  - { offset: 0x7197, size: 0x8, addend: 0x0, symName: __ZNSt3__112basic_stringIcNS_11char_traitsIcEENS_9allocatorIcEEEC2B8ue170006EOS5_, symObjAddr: 0x2400, symBinAddr: 0x1000029F0, symSize: 0x50 }
  - { offset: 0x71CE, size: 0x8, addend: 0x0, symName: __ZNSt3__112basic_stringIcNS_11char_traitsIcEENS_9allocatorIcEEE14__default_initB8ue170006Ev, symObjAddr: 0x2450, symBinAddr: 0x100002A40, symSize: 0x50 }
  - { offset: 0x71F2, size: 0x8, addend: 0x0, symName: __ZNSt3__117__compressed_pairINS_12basic_stringIcNS_11char_traitsIcEENS_9allocatorIcEEE5__repES5_E5firstB8ue170006Ev, symObjAddr: 0x24A0, symBinAddr: 0x100002A90, symSize: 0x20 }
  - { offset: 0x7216, size: 0x8, addend: 0x0, symName: __ZNSt3__122__compressed_pair_elemINS_12basic_stringIcNS_11char_traitsIcEENS_9allocatorIcEEE5__repELi0ELb0EE5__getB8ue170006Ev, symObjAddr: 0x24C0, symBinAddr: 0x100002AB0, symSize: 0x10 }
  - { offset: 0x723A, size: 0x8, addend: 0x0, symName: __ZNSt3__112basic_stringIcNS_11char_traitsIcEENS_9allocatorIcEEE6appendB8ue170006ERKS5_, symObjAddr: 0x24D0, symBinAddr: 0x100002AC0, symSize: 0x50 }
  - { offset: 0x726D, size: 0x8, addend: 0x0, symName: __ZN8TreeNodeC1Ei, symObjAddr: 0x2520, symBinAddr: 0x100002B10, symSize: 0x30 }
  - { offset: 0x72A3, size: 0x8, addend: 0x0, symName: __ZNSt3__110unique_ptrI8TreeNodeNS_14default_deleteIS1_EEEC1B8ue170006ILb1EvEEPS1_, symObjAddr: 0x2550, symBinAddr: 0x100002B40, symSize: 0x30 }
  - { offset: 0x72E4, size: 0x8, addend: 0x0, symName: __ZN8TreeNodeC2Ei, symObjAddr: 0x2580, symBinAddr: 0x100002B70, symSize: 0x40 }
  - { offset: 0x731A, size: 0x8, addend: 0x0, symName: __ZNSt3__110unique_ptrI8TreeNodeNS_14default_deleteIS1_EEEC2B8ue170006ILb1EvEEPS1_, symObjAddr: 0x25C0, symBinAddr: 0x100002BB0, symSize: 0x40 }
  - { offset: 0x735B, size: 0x8, addend: 0x0, symName: __ZNSt3__117__compressed_pairIP8TreeNodeNS_14default_deleteIS1_EEEC1B8ue170006IRS2_NS_16__value_init_tagEEEOT_OT0_, symObjAddr: 0x2600, symBinAddr: 0x100002BF0, symSize: 0x30 }
  - { offset: 0x73B1, size: 0x8, addend: 0x0, symName: __ZNSt3__117__compressed_pairIP8TreeNodeNS_14default_deleteIS1_EEEC2B8ue170006IRS2_NS_16__value_init_tagEEEOT_OT0_, symObjAddr: 0x2630, symBinAddr: 0x100002C20, symSize: 0x40 }
  - { offset: 0x7407, size: 0x8, addend: 0x0, symName: __ZNSt3__122__compressed_pair_elemIP8TreeNodeLi0ELb0EEC2B8ue170006IRS2_vEEOT_, symObjAddr: 0x2670, symBinAddr: 0x100002C60, symSize: 0x1C }
...
